; ModuleID = '12/57.c'
source_filename = "12/57.c"
target datalayout = "e-m:e-p270:32:32-p271:32:32-p272:64:64-i64:64-f80:128-n8:16:32:64-S128"
target triple = "x86_64-pc-linux-gnu"

@.str = private unnamed_addr constant [3 x i8] c"%d\00", align 1

; Function Attrs: noinline nounwind uwtable
define dso_local i32 @main(i32 %0, i8** %1) #0 {
  %3 = alloca i32, align 4
  %4 = alloca i32, align 4
  %5 = alloca i8**, align 8
  %6 = alloca [100 x i32], align 16
  %7 = alloca i32, align 4
  %8 = alloca i32, align 4
  %9 = alloca i32, align 4
  %10 = alloca i32, align 4
  store i32 0, i32* %3, align 4
  store i32 %0, i32* %4, align 4
  store i8** %1, i8*** %5, align 8
  store i32 0, i32* %10, align 4
  %11 = getelementptr inbounds [100 x i32], [100 x i32]* %6, i64 0, i64 0
  %12 = call i32 (i8*, ...) @__isoc99_scanf(i8* getelementptr inbounds ([3 x i8], [3 x i8]* @.str, i64 0, i64 0), i32* %11)
  store i32 0, i32* %7, align 4
  br label %13

13:                                               ; preds = %25, %2
  %14 = load i32, i32* %7, align 4
  %15 = sext i32 %14 to i64
  %16 = getelementptr inbounds [100 x i32], [100 x i32]* %6, i64 0, i64 %15
  %17 = load i32, i32* %16, align 4
  %18 = icmp ne i32 %17, 0
  br i1 %18, label %19, label %28

19:                                               ; preds = %13
  %20 = load i32, i32* %7, align 4
  %21 = add nsw i32 %20, 1
  %22 = sext i32 %21 to i64
  %23 = getelementptr inbounds [100 x i32], [100 x i32]* %6, i64 0, i64 %22
  %24 = call i32 (i8*, ...) @__isoc99_scanf(i8* getelementptr inbounds ([3 x i8], [3 x i8]* @.str, i64 0, i64 0), i32* %23)
  br label %25

25:                                               ; preds = %19
  %26 = load i32, i32* %7, align 4
  %27 = add nsw i32 %26, 1
  store i32 %27, i32* %7, align 4
  br label %13

28:                                               ; preds = %13
  store i32 0, i32* %8, align 4
  br label %29

29:                                               ; preds = %57, %28
  %30 = load i32, i32* %8, align 4
  %31 = load i32, i32* %7, align 4
  %32 = icmp sle i32 %30, %31
  br i1 %32, label %33, label %60

33:                                               ; preds = %29
  store i32 0, i32* %9, align 4
  br label %34

34:                                               ; preds = %53, %33
  %35 = load i32, i32* %9, align 4
  %36 = load i32, i32* %7, align 4
  %37 = icmp sle i32 %35, %36
  br i1 %37, label %38, label %56

38:                                               ; preds = %34
  %39 = load i32, i32* %8, align 4
  %40 = sext i32 %39 to i64
  %41 = getelementptr inbounds [100 x i32], [100 x i32]* %6, i64 0, i64 %40
  %42 = load i32, i32* %41, align 4
  %43 = load i32, i32* %9, align 4
  %44 = sext i32 %43 to i64
  %45 = getelementptr inbounds [100 x i32], [100 x i32]* %6, i64 0, i64 %44
  %46 = load i32, i32* %45, align 4
  %47 = mul nsw i32 2, %46
  %48 = icmp eq i32 %42, %47
  br i1 %48, label %49, label %52

49:                                               ; preds = %38
  %50 = load i32, i32* %10, align 4
  %51 = add nsw i32 %50, 1
  store i32 %51, i32* %10, align 4
  br label %52

52:                                               ; preds = %49, %38
  br label %53

53:                                               ; preds = %52
  %54 = load i32, i32* %9, align 4
  %55 = add nsw i32 %54, 1
  store i32 %55, i32* %9, align 4
  br label %34

56:                                               ; preds = %34
  br label %57

57:                                               ; preds = %56
  %58 = load i32, i32* %8, align 4
  %59 = add nsw i32 %58, 1
  store i32 %59, i32* %8, align 4
  br label %29

60:                                               ; preds = %29
  %61 = load i32, i32* %10, align 4
  %62 = icmp ne i32 %61, 0
  br i1 %62, label %63, label %68

63:                                               ; preds = %60
  %64 = load i32, i32* %10, align 4
  %65 = sub nsw i32 %64, 1
  store i32 %65, i32* %10, align 4
  %66 = load i32, i32* %10, align 4
  %67 = call i32 (i8*, ...) @printf(i8* getelementptr inbounds ([3 x i8], [3 x i8]* @.str, i64 0, i64 0), i32 %66)
  br label %71

68:                                               ; preds = %60
  %69 = load i32, i32* %10, align 4
  %70 = call i32 (i8*, ...) @printf(i8* getelementptr inbounds ([3 x i8], [3 x i8]* @.str, i64 0, i64 0), i32 %69)
  br label %71

71:                                               ; preds = %68, %63
  ret i32 0
}

declare dso_local i32 @__isoc99_scanf(i8*, ...) #1

declare dso_local i32 @printf(i8*, ...) #1


!llvm.module.flags = !{!0}
!llvm.ident = !{!1}

!0 = !{i32 1, !"wchar_size", i32 4}
!1 = !{!"clang version 10.0.0-4ubuntu1 "}
